target datalayout = "e-m:e-p270:32:32-p271:32:32-p272:64:64-i64:64-i128:128-f80:128-n8:16:32:64-S128"
target triple = "x86_64-pc-linux-gnu"

%struct.dbd_node_state_msg = type { i64, ptr, ptr, ptr, ptr, i16, ptr, i32, i32, ptr }

@.str = private unnamed_addr constant [16 x i8] c"slurmdbd_pack.c\00", align 1
@__func__._unpack_node_state_msg = private unnamed_addr constant [23 x i8] c"_unpack_node_state_msg\00", align 1

; Function Attrs: nounwind uwtable
define internal i32 @_unpack_node_state_msg(ptr noundef %0, i16 noundef zeroext %1, ptr noundef %2) #0 {
  %4 = alloca i32, align 4
  %5 = alloca ptr, align 8
  %6 = alloca i16, align 2
  %7 = alloca ptr, align 8
  %8 = alloca ptr, align 8
  %9 = alloca i32, align 4
  %10 = alloca i32, align 4
  %11 = alloca i32, align 4
  %12 = alloca i32, align 4
  %13 = alloca i32, align 4
  %14 = alloca i32, align 4
  %15 = alloca i32, align 4
  store ptr %0, ptr %5, align 8
  store i16 %1, ptr %6, align 2
  store ptr %2, ptr %7, align 8
  call void @llvm.lifetime.start.p0(i64 8, ptr %8) #5
  %16 = call ptr @slurm_xcalloc(i64 noundef 1, i64 noundef 72, i1 noundef zeroext true, i1 noundef zeroext false, ptr noundef @.str, i32 noundef 1061, ptr noundef @__func__._unpack_node_state_msg)
  store ptr %16, ptr %8, align 8
  %17 = load ptr, ptr %8, align 8
  %18 = load ptr, ptr %5, align 8
  store ptr %17, ptr %18, align 8
  %19 = load ptr, ptr %8, align 8
  %20 = getelementptr inbounds nuw %struct.dbd_node_state_msg, ptr %19, i32 0, i32 7
  store i32 -2, ptr %20, align 8
  %21 = load i16, ptr %6, align 2
  %22 = zext i16 %21 to i32
  %23 = icmp sge i32 %22, 10240
  br i1 %23, label %24, label %143

24:                                               ; preds = %3
  br label %25

25:                                               ; preds = %24
  call void @llvm.lifetime.start.p0(i64 4, ptr %9) #5
  %26 = load ptr, ptr %8, align 8
  %27 = getelementptr inbounds nuw %struct.dbd_node_state_msg, ptr %26, i32 0, i32 2
  %28 = load ptr, ptr %7, align 8
  %29 = call i32 @unpackstr_xmalloc_chooser(ptr noundef %27, ptr noundef %9, ptr noundef %28)
  %30 = icmp ne i32 %29, 0
  br i1 %30, label %31, label %32

31:                                               ; preds = %25
  store i32 4, ptr %10, align 4
  br label %33

32:                                               ; preds = %25
  store i32 0, ptr %10, align 4
  br label %33

33:                                               ; preds = %31, %32
  call void @llvm.lifetime.end.p0(i64 4, ptr %9) #5
  %34 = load i32, ptr %10, align 4
  switch i32 %34, label %147 [
    i32 0, label %35
    i32 4, label %144
  ]

35:                                               ; preds = %33
  br label %36

36:                                               ; preds = %35
  br label %37

37:                                               ; preds = %36
  br label %38

38:                                               ; preds = %37
  call void @llvm.lifetime.start.p0(i64 4, ptr %11) #5
  %39 = load ptr, ptr %8, align 8
  %40 = getelementptr inbounds nuw %struct.dbd_node_state_msg, ptr %39, i32 0, i32 1
  %41 = load ptr, ptr %7, align 8
  %42 = call i32 @unpackstr_xmalloc_chooser(ptr noundef %40, ptr noundef %11, ptr noundef %41)
  %43 = icmp ne i32 %42, 0
  br i1 %43, label %44, label %45

44:                                               ; preds = %38
  store i32 4, ptr %10, align 4
  br label %46

45:                                               ; preds = %38
  store i32 0, ptr %10, align 4
  br label %46

46:                                               ; preds = %44, %45
  call void @llvm.lifetime.end.p0(i64 4, ptr %11) #5
  %47 = load i32, ptr %10, align 4
  switch i32 %47, label %147 [
    i32 0, label %48
    i32 4, label %144
  ]

48:                                               ; preds = %46
  br label %49

49:                                               ; preds = %48
  br label %50

50:                                               ; preds = %49
  br label %51

51:                                               ; preds = %50
  call void @llvm.lifetime.start.p0(i64 4, ptr %12) #5
  %52 = load ptr, ptr %8, align 8
  %53 = getelementptr inbounds nuw %struct.dbd_node_state_msg, ptr %52, i32 0, i32 3
  %54 = load ptr, ptr %7, align 8
  %55 = call i32 @unpackstr_xmalloc_chooser(ptr noundef %53, ptr noundef %12, ptr noundef %54)
  %56 = icmp ne i32 %55, 0
  br i1 %56, label %57, label %58

57:                                               ; preds = %51
  store i32 4, ptr %10, align 4
  br label %59

58:                                               ; preds = %51
  store i32 0, ptr %10, align 4
  br label %59

59:                                               ; preds = %57, %58
  call void @llvm.lifetime.end.p0(i64 4, ptr %12) #5
  %60 = load i32, ptr %10, align 4
  switch i32 %60, label %147 [
    i32 0, label %61
    i32 4, label %144
  ]

61:                                               ; preds = %59
  br label %62

62:                                               ; preds = %61
  br label %63

63:                                               ; preds = %62
  br label %64

64:                                               ; preds = %63
  call void @llvm.lifetime.start.p0(i64 4, ptr %13) #5
  %65 = load ptr, ptr %8, align 8
  %66 = getelementptr inbounds nuw %struct.dbd_node_state_msg, ptr %65, i32 0, i32 4
  %67 = load ptr, ptr %7, align 8
  %68 = call i32 @unpackstr_xmalloc_chooser(ptr noundef %66, ptr noundef %13, ptr noundef %67)
  %69 = icmp ne i32 %68, 0
  br i1 %69, label %70, label %71

70:                                               ; preds = %64
  store i32 4, ptr %10, align 4
  br label %72

71:                                               ; preds = %64
  store i32 0, ptr %10, align 4
  br label %72

72:                                               ; preds = %70, %71
  call void @llvm.lifetime.end.p0(i64 4, ptr %13) #5
  %73 = load i32, ptr %10, align 4
  switch i32 %73, label %147 [
    i32 0, label %74
    i32 4, label %144
  ]

74:                                               ; preds = %72
  br label %75

75:                                               ; preds = %74
  br label %76

76:                                               ; preds = %75
  br label %77

77:                                               ; preds = %76
  call void @llvm.lifetime.start.p0(i64 4, ptr %14) #5
  %78 = load ptr, ptr %8, align 8
  %79 = getelementptr inbounds nuw %struct.dbd_node_state_msg, ptr %78, i32 0, i32 6
  %80 = load ptr, ptr %7, align 8
  %81 = call i32 @unpackstr_xmalloc_chooser(ptr noundef %79, ptr noundef %14, ptr noundef %80)
  %82 = icmp ne i32 %81, 0
  br i1 %82, label %83, label %84

83:                                               ; preds = %77
  store i32 4, ptr %10, align 4
  br label %85

84:                                               ; preds = %77
  store i32 0, ptr %10, align 4
  br label %85

85:                                               ; preds = %83, %84
  call void @llvm.lifetime.end.p0(i64 4, ptr %14) #5
  %86 = load i32, ptr %10, align 4
  switch i32 %86, label %147 [
    i32 0, label %87
    i32 4, label %144
  ]

87:                                               ; preds = %85
  br label %88

88:                                               ; preds = %87
  br label %89

89:                                               ; preds = %88
  br label %90

90:                                               ; preds = %89
  %91 = load ptr, ptr %8, align 8
  %92 = getelementptr inbounds nuw %struct.dbd_node_state_msg, ptr %91, i32 0, i32 7
  %93 = load ptr, ptr %7, align 8
  %94 = call i32 @unpack32(ptr noundef %92, ptr noundef %93)
  %95 = icmp ne i32 %94, 0
  br i1 %95, label %96, label %97

96:                                               ; preds = %90
  br label %144

97:                                               ; preds = %90
  br label %98

98:                                               ; preds = %97
  br label %99

99:                                               ; preds = %98
  br label %100

100:                                              ; preds = %99
  %101 = load ptr, ptr %8, align 8
  %102 = getelementptr inbounds nuw %struct.dbd_node_state_msg, ptr %101, i32 0, i32 5
  %103 = load ptr, ptr %7, align 8
  %104 = call i32 @unpack16(ptr noundef %102, ptr noundef %103)
  %105 = icmp ne i32 %104, 0
  br i1 %105, label %106, label %107

106:                                              ; preds = %100
  br label %144

107:                                              ; preds = %100
  br label %108

108:                                              ; preds = %107
  br label %109

109:                                              ; preds = %108
  br label %110

110:                                              ; preds = %109
  %111 = load ptr, ptr %8, align 8
  %112 = getelementptr inbounds nuw %struct.dbd_node_state_msg, ptr %111, i32 0, i32 0
  %113 = load ptr, ptr %7, align 8
  %114 = call i32 @unpack_time(ptr noundef %112, ptr noundef %113)
  %115 = icmp ne i32 %114, 0
  br i1 %115, label %116, label %117

116:                                              ; preds = %110
  br label %144

117:                                              ; preds = %110
  br label %118

118:                                              ; preds = %117
  br label %119

119:                                              ; preds = %118
  br label %120

120:                                              ; preds = %119
  %121 = load ptr, ptr %8, align 8
  %122 = getelementptr inbounds nuw %struct.dbd_node_state_msg, ptr %121, i32 0, i32 8
  %123 = load ptr, ptr %7, align 8
  %124 = call i32 @unpack32(ptr noundef %122, ptr noundef %123)
  %125 = icmp ne i32 %124, 0
  br i1 %125, label %126, label %127

126:                                              ; preds = %120
  br label %144

127:                                              ; preds = %120
  br label %128

128:                                              ; preds = %127
  br label %129

129:                                              ; preds = %128
  br label %130

130:                                              ; preds = %129
  call void @llvm.lifetime.start.p0(i64 4, ptr %15) #5
  %131 = load ptr, ptr %8, align 8
  %132 = getelementptr inbounds nuw %struct.dbd_node_state_msg, ptr %131, i32 0, i32 9
  %133 = load ptr, ptr %7, align 8
  %134 = call i32 @unpackstr_xmalloc_chooser(ptr noundef %132, ptr noundef %15, ptr noundef %133)
  %135 = icmp ne i32 %134, 0
  br i1 %135, label %136, label %137

136:                                              ; preds = %130
  store i32 4, ptr %10, align 4
  br label %138

137:                                              ; preds = %130
  store i32 0, ptr %10, align 4
  br label %138

138:                                              ; preds = %136, %137
  call void @llvm.lifetime.end.p0(i64 4, ptr %15) #5
  %139 = load i32, ptr %10, align 4
  switch i32 %139, label %147 [
    i32 0, label %140
    i32 4, label %144
  ]

140:                                              ; preds = %138
  br label %141

141:                                              ; preds = %140
  br label %142

142:                                              ; preds = %141
  br label %143

143:                                              ; preds = %142, %3
  store i32 0, ptr %4, align 4
  store i32 1, ptr %10, align 4
  br label %147

144:                                              ; preds = %138, %85, %72, %59, %46, %33, %126, %116, %106, %96
  %145 = load ptr, ptr %8, align 8
  call void @slurmdbd_free_node_state_msg(ptr noundef %145)
  %146 = load ptr, ptr %5, align 8
  store ptr null, ptr %146, align 8
  store i32 -1, ptr %4, align 4
  store i32 1, ptr %10, align 4
  br label %147

147:                                              ; preds = %144, %143, %138, %85, %72, %59, %46, %33
  call void @llvm.lifetime.end.p0(i64 8, ptr %8) #5
  %148 = load i32, ptr %4, align 4
  ret i32 %148
}