; Function Attrs: nounwind uwtable
define internal fastcc range(i32 -1, 1) i32 @_unpack_node_state_msg(ptr noundef writeonly captures(none) initializes((0, 8)) %0, i16 noundef zeroext %1, ptr noundef %2) unnamed_addr #0 {
  %4 = alloca i32, align 4
  %5 = alloca i32, align 4
  %6 = alloca i32, align 4
  %7 = alloca i32, align 4
  %8 = alloca i32, align 4
  %9 = alloca i32, align 4
  %10 = tail call ptr @slurm_xcalloc(i64 noundef 1, i64 noundef 72, i1 noundef zeroext true, i1 noundef zeroext false, ptr noundef nonnull @.str, i32 noundef 1061, ptr noundef nonnull @__func__._unpack_node_state_msg) #5
  store ptr %10, ptr %0, align 8
  %11 = getelementptr inbounds nuw i8, ptr %10, i64 56
  store i32 -2, ptr %11, align 8
  %12 = icmp ugt i16 %1, 10239
  br i1 %12, label %13, label %42

13:                                               ; preds = %3
  call void @llvm.lifetime.start.p0(i64 4, ptr nonnull %4) #5
  %14 = getelementptr inbounds nuw i8, ptr %10, i64 16
  %15 = call i32 @unpackstr_xmalloc_chooser(ptr noundef nonnull %14, ptr noundef nonnull %4, ptr noundef %2) #5
  %.not = icmp eq i32 %15, 0
  call void @llvm.lifetime.end.p0(i64 4, ptr nonnull %4) #5
  br i1 %.not, label %16, label %41

16:                                               ; preds = %13
  call void @llvm.lifetime.start.p0(i64 4, ptr nonnull %5) #5
  %17 = getelementptr inbounds nuw i8, ptr %10, i64 8
  %18 = call i32 @unpackstr_xmalloc_chooser(ptr noundef nonnull %17, ptr noundef nonnull %5, ptr noundef %2) #5
  %.not33 = icmp eq i32 %18, 0
  call void @llvm.lifetime.end.p0(i64 4, ptr nonnull %5) #5
  br i1 %.not33, label %19, label %41

19:                                               ; preds = %16
  call void @llvm.lifetime.start.p0(i64 4, ptr nonnull %6) #5
  %20 = getelementptr inbounds nuw i8, ptr %10, i64 24
  %21 = call i32 @unpackstr_xmalloc_chooser(ptr noundef nonnull %20, ptr noundef nonnull %6, ptr noundef %2) #5
  %.not34 = icmp eq i32 %21, 0
  call void @llvm.lifetime.end.p0(i64 4, ptr nonnull %6) #5
  br i1 %.not34, label %22, label %41

22:                                               ; preds = %19
  call void @llvm.lifetime.start.p0(i64 4, ptr nonnull %7) #5
  %23 = getelementptr inbounds nuw i8, ptr %10, i64 32
  %24 = call i32 @unpackstr_xmalloc_chooser(ptr noundef nonnull %23, ptr noundef nonnull %7, ptr noundef %2) #5
  %.not35 = icmp eq i32 %24, 0
  call void @llvm.lifetime.end.p0(i64 4, ptr nonnull %7) #5
  br i1 %.not35, label %25, label %41

25:                                               ; preds = %22
  call void @llvm.lifetime.start.p0(i64 4, ptr nonnull %8) #5
  %26 = getelementptr inbounds nuw i8, ptr %10, i64 48
  %27 = call i32 @unpackstr_xmalloc_chooser(ptr noundef nonnull %26, ptr noundef nonnull %8, ptr noundef %2) #5
  %.not36 = icmp eq i32 %27, 0
  call void @llvm.lifetime.end.p0(i64 4, ptr nonnull %8) #5
  br i1 %.not36, label %28, label %41

28:                                               ; preds = %25
  %29 = call i32 @unpack32(ptr noundef nonnull %11, ptr noundef %2) #5
  %.not37 = icmp eq i32 %29, 0
  br i1 %.not37, label %30, label %41

30:                                               ; preds = %28
  %31 = getelementptr inbounds nuw i8, ptr %10, i64 40
  %32 = call i32 @unpack16(ptr noundef nonnull %31, ptr noundef %2) #5
  %.not38 = icmp eq i32 %32, 0
  br i1 %.not38, label %33, label %41

33:                                               ; preds = %30
  %34 = call i32 @unpack_time(ptr noundef nonnull %10, ptr noundef %2) #5
  %.not39 = icmp eq i32 %34, 0
  br i1 %.not39, label %35, label %41

35:                                               ; preds = %33
  %36 = getelementptr inbounds nuw i8, ptr %10, i64 60
  %37 = call i32 @unpack32(ptr noundef nonnull %36, ptr noundef %2) #5
  %.not40 = icmp eq i32 %37, 0
  br i1 %.not40, label %38, label %41

38:                                               ; preds = %35
  call void @llvm.lifetime.start.p0(i64 4, ptr nonnull %9) #5
  %39 = getelementptr inbounds nuw i8, ptr %10, i64 64
  %40 = call i32 @unpackstr_xmalloc_chooser(ptr noundef nonnull %39, ptr noundef nonnull %9, ptr noundef %2) #5
  %.not41 = icmp eq i32 %40, 0
  call void @llvm.lifetime.end.p0(i64 4, ptr nonnull %9) #5
  br i1 %.not41, label %42, label %41

41:                                               ; preds = %38, %25, %22, %19, %16, %13, %35, %33, %30, %28
  call void @slurmdbd_free_node_state_msg(ptr noundef nonnull %10) #5
  store ptr null, ptr %0, align 8
  br label %42

42:                                               ; preds = %38, %3, %41
  %.032 = phi i32 [ -1, %41 ], [ 0, %38 ], [ 0, %3 ]
  ret i32 %.032
}